;--------------------------------------------------------
; File Created by C51
; Version 1.0.0 #1170 (Feb 16 2022) (MSVC)
; This file was generated Mon Mar 02 13:28:41 2026
;--------------------------------------------------------
$name uart
$optc51 --model-small
	R_DSEG    segment data
	R_CSEG    segment code
	R_BSEG    segment bit
	R_XSEG    segment xdata
	R_PSEG    segment xdata
	R_ISEG    segment idata
	R_OSEG    segment data overlay
	BIT_BANK  segment data overlay
	R_HOME    segment code
	R_GSINIT  segment code
	R_IXSEG   segment xdata
	R_CONST   segment code
	R_XINIT   segment code
	R_DINIT   segment code

;--------------------------------------------------------
; Public variables in this module
;--------------------------------------------------------
	public _UART0_ISR
	public _UART_init
	public _UART_send_char
	public _UART_send_string
	public _UART_available
	public _UART_read
;--------------------------------------------------------
; Special Function Registers
;--------------------------------------------------------
_ACC            DATA 0xe0
_ADC0ASAH       DATA 0xb6
_ADC0ASAL       DATA 0xb5
_ADC0ASCF       DATA 0xa1
_ADC0ASCT       DATA 0xc7
_ADC0CF0        DATA 0xbc
_ADC0CF1        DATA 0xb9
_ADC0CF2        DATA 0xdf
_ADC0CN0        DATA 0xe8
_ADC0CN1        DATA 0xb2
_ADC0CN2        DATA 0xb3
_ADC0GTH        DATA 0xc4
_ADC0GTL        DATA 0xc3
_ADC0H          DATA 0xbe
_ADC0L          DATA 0xbd
_ADC0LTH        DATA 0xc6
_ADC0LTL        DATA 0xc5
_ADC0MX         DATA 0xbb
_B              DATA 0xf0
_CKCON0         DATA 0x8e
_CKCON1         DATA 0xa6
_CLEN0          DATA 0xc6
_CLIE0          DATA 0xc7
_CLIF0          DATA 0xe8
_CLKSEL         DATA 0xa9
_CLOUT0         DATA 0xd1
_CLU0CF         DATA 0xb1
_CLU0FN         DATA 0xaf
_CLU0MX         DATA 0x84
_CLU1CF         DATA 0xb3
_CLU1FN         DATA 0xb2
_CLU1MX         DATA 0x85
_CLU2CF         DATA 0xb6
_CLU2FN         DATA 0xb5
_CLU2MX         DATA 0x91
_CLU3CF         DATA 0xbf
_CLU3FN         DATA 0xbe
_CLU3MX         DATA 0xae
_CMP0CN0        DATA 0x9b
_CMP0CN1        DATA 0x99
_CMP0MD         DATA 0x9d
_CMP0MX         DATA 0x9f
_CMP1CN0        DATA 0xbf
_CMP1CN1        DATA 0xac
_CMP1MD         DATA 0xab
_CMP1MX         DATA 0xaa
_CRC0CN0        DATA 0xce
_CRC0CN1        DATA 0x86
_CRC0CNT        DATA 0xd3
_CRC0DAT        DATA 0xcb
_CRC0FLIP       DATA 0xcf
_CRC0IN         DATA 0xca
_CRC0ST         DATA 0xd2
_DAC0CF0        DATA 0x91
_DAC0CF1        DATA 0x92
_DAC0H          DATA 0x85
_DAC0L          DATA 0x84
_DAC1CF0        DATA 0x93
_DAC1CF1        DATA 0x94
_DAC1H          DATA 0x8a
_DAC1L          DATA 0x89
_DAC2CF0        DATA 0x95
_DAC2CF1        DATA 0x96
_DAC2H          DATA 0x8c
_DAC2L          DATA 0x8b
_DAC3CF0        DATA 0x9a
_DAC3CF1        DATA 0x9c
_DAC3H          DATA 0x8e
_DAC3L          DATA 0x8d
_DACGCF0        DATA 0x88
_DACGCF1        DATA 0x98
_DACGCF2        DATA 0xa2
_DERIVID        DATA 0xad
_DEVICEID       DATA 0xb5
_DPH            DATA 0x83
_DPL            DATA 0x82
_EIE1           DATA 0xe6
_EIE2           DATA 0xf3
_EIP1           DATA 0xbb
_EIP1H          DATA 0xee
_EIP2           DATA 0xed
_EIP2H          DATA 0xf6
_EMI0CN         DATA 0xe7
_FLKEY          DATA 0xb7
_HFO0CAL        DATA 0xc7
_HFO1CAL        DATA 0xd6
_HFOCN          DATA 0xef
_I2C0ADM        DATA 0xff
_I2C0CN0        DATA 0xba
_I2C0DIN        DATA 0xbc
_I2C0DOUT       DATA 0xbb
_I2C0FCN0       DATA 0xad
_I2C0FCN1       DATA 0xab
_I2C0FCT        DATA 0xf5
_I2C0SLAD       DATA 0xbd
_I2C0STAT       DATA 0xb9
_IE             DATA 0xa8
_IP             DATA 0xb8
_IPH            DATA 0xf2
_IT01CF         DATA 0xe4
_LFO0CN         DATA 0xb1
_P0             DATA 0x80
_P0MASK         DATA 0xfe
_P0MAT          DATA 0xfd
_P0MDIN         DATA 0xf1
_P0MDOUT        DATA 0xa4
_P0SKIP         DATA 0xd4
_P1             DATA 0x90
_P1MASK         DATA 0xee
_P1MAT          DATA 0xed
_P1MDIN         DATA 0xf2
_P1MDOUT        DATA 0xa5
_P1SKIP         DATA 0xd5
_P2             DATA 0xa0
_P2MASK         DATA 0xfc
_P2MAT          DATA 0xfb
_P2MDIN         DATA 0xf3
_P2MDOUT        DATA 0xa6
_P2SKIP         DATA 0xcc
_P3             DATA 0xb0
_P3MDIN         DATA 0xf4
_P3MDOUT        DATA 0x9c
_PCA0CENT       DATA 0x9e
_PCA0CLR        DATA 0x9c
_PCA0CN0        DATA 0xd8
_PCA0CPH0       DATA 0xfc
_PCA0CPH1       DATA 0xea
_PCA0CPH2       DATA 0xec
_PCA0CPH3       DATA 0xf5
_PCA0CPH4       DATA 0x85
_PCA0CPH5       DATA 0xde
_PCA0CPL0       DATA 0xfb
_PCA0CPL1       DATA 0xe9
_PCA0CPL2       DATA 0xeb
_PCA0CPL3       DATA 0xf4
_PCA0CPL4       DATA 0x84
_PCA0CPL5       DATA 0xdd
_PCA0CPM0       DATA 0xda
_PCA0CPM1       DATA 0xdb
_PCA0CPM2       DATA 0xdc
_PCA0CPM3       DATA 0xae
_PCA0CPM4       DATA 0xaf
_PCA0CPM5       DATA 0xcc
_PCA0H          DATA 0xfa
_PCA0L          DATA 0xf9
_PCA0MD         DATA 0xd9
_PCA0POL        DATA 0x96
_PCA0PWM        DATA 0xf7
_PCON0          DATA 0x87
_PCON1          DATA 0xcd
_PFE0CN         DATA 0xc1
_PRTDRV         DATA 0xf6
_PSCTL          DATA 0x8f
_PSTAT0         DATA 0xaa
_PSW            DATA 0xd0
_REF0CN         DATA 0xd1
_REG0CN         DATA 0xc9
_REVID          DATA 0xb6
_RSTSRC         DATA 0xef
_SBCON1         DATA 0x94
_SBRLH1         DATA 0x96
_SBRLL1         DATA 0x95
_SBUF           DATA 0x99
_SBUF0          DATA 0x99
_SBUF1          DATA 0x92
_SCON           DATA 0x98
_SCON0          DATA 0x98
_SCON1          DATA 0xc8
_SFRPAGE        DATA 0xa7
_SFRPGCN        DATA 0xbc
_SFRSTACK       DATA 0xd7
_SMB0ADM        DATA 0xd6
_SMB0ADR        DATA 0xd7
_SMB0CF         DATA 0xc1
_SMB0CN0        DATA 0xc0
_SMB0DAT        DATA 0xc2
_SMB0FCN0       DATA 0xc3
_SMB0FCN1       DATA 0xc4
_SMB0FCT        DATA 0xef
_SMB0RXLN       DATA 0xc5
_SMB0TC         DATA 0xac
_SMOD1          DATA 0x93
_SP             DATA 0x81
_SPI0CFG        DATA 0xa1
_SPI0CKR        DATA 0xa2
_SPI0CN0        DATA 0xf8
_SPI0DAT        DATA 0xa3
_SPI0FCN0       DATA 0x9a
_SPI0FCN1       DATA 0x9b
_SPI0FCT        DATA 0xf7
_SPI0PCF        DATA 0xdf
_TCON           DATA 0x88
_TH0            DATA 0x8c
_TH1            DATA 0x8d
_TL0            DATA 0x8a
_TL1            DATA 0x8b
_TMOD           DATA 0x89
_TMR2CN0        DATA 0xc8
_TMR2CN1        DATA 0xfd
_TMR2H          DATA 0xcf
_TMR2L          DATA 0xce
_TMR2RLH        DATA 0xcb
_TMR2RLL        DATA 0xca
_TMR3CN0        DATA 0x91
_TMR3CN1        DATA 0xfe
_TMR3H          DATA 0x95
_TMR3L          DATA 0x94
_TMR3RLH        DATA 0x93
_TMR3RLL        DATA 0x92
_TMR4CN0        DATA 0x98
_TMR4CN1        DATA 0xff
_TMR4H          DATA 0xa5
_TMR4L          DATA 0xa4
_TMR4RLH        DATA 0xa3
_TMR4RLL        DATA 0xa2
_TMR5CN0        DATA 0xc0
_TMR5CN1        DATA 0xf1
_TMR5H          DATA 0xd5
_TMR5L          DATA 0xd4
_TMR5RLH        DATA 0xd3
_TMR5RLL        DATA 0xd2
_UART0PCF       DATA 0xd9
_UART1FCN0      DATA 0x9d
_UART1FCN1      DATA 0xd8
_UART1FCT       DATA 0xfa
_UART1LIN       DATA 0x9e
_UART1PCF       DATA 0xda
_VDM0CN         DATA 0xff
_WDTCN          DATA 0x97
_XBR0           DATA 0xe1
_XBR1           DATA 0xe2
_XBR2           DATA 0xe3
_XOSC0CN        DATA 0x86
_DPTR           DATA 0x8382
_TMR2RL         DATA 0xcbca
_TMR3RL         DATA 0x9392
_TMR4RL         DATA 0xa3a2
_TMR5RL         DATA 0xd3d2
_TMR0           DATA 0x8c8a
_TMR1           DATA 0x8d8b
_TMR2           DATA 0xcfce
_TMR3           DATA 0x9594
_TMR4           DATA 0xa5a4
_TMR5           DATA 0xd5d4
_SBRL1          DATA 0x9695
_PCA0           DATA 0xfaf9
_PCA0CP0        DATA 0xfcfb
_PCA0CP1        DATA 0xeae9
_PCA0CP2        DATA 0xeceb
_PCA0CP3        DATA 0xf5f4
_PCA0CP4        DATA 0x8584
_PCA0CP5        DATA 0xdedd
_ADC0ASA        DATA 0xb6b5
_ADC0GT         DATA 0xc4c3
_ADC0           DATA 0xbebd
_ADC0LT         DATA 0xc6c5
_DAC0           DATA 0x8584
_DAC1           DATA 0x8a89
_DAC2           DATA 0x8c8b
_DAC3           DATA 0x8e8d
;--------------------------------------------------------
; special function bits
;--------------------------------------------------------
_ACC_0          BIT 0xe0
_ACC_1          BIT 0xe1
_ACC_2          BIT 0xe2
_ACC_3          BIT 0xe3
_ACC_4          BIT 0xe4
_ACC_5          BIT 0xe5
_ACC_6          BIT 0xe6
_ACC_7          BIT 0xe7
_TEMPE          BIT 0xe8
_ADGN0          BIT 0xe9
_ADGN1          BIT 0xea
_ADWINT         BIT 0xeb
_ADBUSY         BIT 0xec
_ADINT          BIT 0xed
_IPOEN          BIT 0xee
_ADEN           BIT 0xef
_B_0            BIT 0xf0
_B_1            BIT 0xf1
_B_2            BIT 0xf2
_B_3            BIT 0xf3
_B_4            BIT 0xf4
_B_5            BIT 0xf5
_B_6            BIT 0xf6
_B_7            BIT 0xf7
_C0FIF          BIT 0xe8
_C0RIF          BIT 0xe9
_C1FIF          BIT 0xea
_C1RIF          BIT 0xeb
_C2FIF          BIT 0xec
_C2RIF          BIT 0xed
_C3FIF          BIT 0xee
_C3RIF          BIT 0xef
_D1SRC0         BIT 0x88
_D1SRC1         BIT 0x89
_D1AMEN         BIT 0x8a
_D01REFSL       BIT 0x8b
_D3SRC0         BIT 0x8c
_D3SRC1         BIT 0x8d
_D3AMEN         BIT 0x8e
_D23REFSL       BIT 0x8f
_D0UDIS         BIT 0x98
_D1UDIS         BIT 0x99
_D2UDIS         BIT 0x9a
_D3UDIS         BIT 0x9b
_EX0            BIT 0xa8
_ET0            BIT 0xa9
_EX1            BIT 0xaa
_ET1            BIT 0xab
_ES0            BIT 0xac
_ET2            BIT 0xad
_ESPI0          BIT 0xae
_EA             BIT 0xaf
_PX0            BIT 0xb8
_PT0            BIT 0xb9
_PX1            BIT 0xba
_PT1            BIT 0xbb
_PS0            BIT 0xbc
_PT2            BIT 0xbd
_PSPI0          BIT 0xbe
_P0_0           BIT 0x80
_P0_1           BIT 0x81
_P0_2           BIT 0x82
_P0_3           BIT 0x83
_P0_4           BIT 0x84
_P0_5           BIT 0x85
_P0_6           BIT 0x86
_P0_7           BIT 0x87
_P1_0           BIT 0x90
_P1_1           BIT 0x91
_P1_2           BIT 0x92
_P1_3           BIT 0x93
_P1_4           BIT 0x94
_P1_5           BIT 0x95
_P1_6           BIT 0x96
_P1_7           BIT 0x97
_P2_0           BIT 0xa0
_P2_1           BIT 0xa1
_P2_2           BIT 0xa2
_P2_3           BIT 0xa3
_P2_4           BIT 0xa4
_P2_5           BIT 0xa5
_P2_6           BIT 0xa6
_P3_0           BIT 0xb0
_P3_1           BIT 0xb1
_P3_2           BIT 0xb2
_P3_3           BIT 0xb3
_P3_4           BIT 0xb4
_P3_7           BIT 0xb7
_CCF0           BIT 0xd8
_CCF1           BIT 0xd9
_CCF2           BIT 0xda
_CCF3           BIT 0xdb
_CCF4           BIT 0xdc
_CCF5           BIT 0xdd
_CR             BIT 0xde
_CF             BIT 0xdf
_PARITY         BIT 0xd0
_F1             BIT 0xd1
_OV             BIT 0xd2
_RS0            BIT 0xd3
_RS1            BIT 0xd4
_F0             BIT 0xd5
_AC             BIT 0xd6
_CY             BIT 0xd7
_RI             BIT 0x98
_TI             BIT 0x99
_RB8            BIT 0x9a
_TB8            BIT 0x9b
_REN            BIT 0x9c
_CE             BIT 0x9d
_SMODE          BIT 0x9e
_RI1            BIT 0xc8
_TI1            BIT 0xc9
_RBX1           BIT 0xca
_TBX1           BIT 0xcb
_REN1           BIT 0xcc
_PERR1          BIT 0xcd
_OVR1           BIT 0xce
_SI             BIT 0xc0
_ACK            BIT 0xc1
_ARBLOST        BIT 0xc2
_ACKRQ          BIT 0xc3
_STO            BIT 0xc4
_STA            BIT 0xc5
_TXMODE         BIT 0xc6
_MASTER         BIT 0xc7
_SPIEN          BIT 0xf8
_TXNF           BIT 0xf9
_NSSMD0         BIT 0xfa
_NSSMD1         BIT 0xfb
_RXOVRN         BIT 0xfc
_MODF           BIT 0xfd
_WCOL           BIT 0xfe
_SPIF           BIT 0xff
_IT0            BIT 0x88
_IE0            BIT 0x89
_IT1            BIT 0x8a
_IE1            BIT 0x8b
_TR0            BIT 0x8c
_TF0            BIT 0x8d
_TR1            BIT 0x8e
_TF1            BIT 0x8f
_T2XCLK0        BIT 0xc8
_T2XCLK1        BIT 0xc9
_TR2            BIT 0xca
_T2SPLIT        BIT 0xcb
_TF2CEN         BIT 0xcc
_TF2LEN         BIT 0xcd
_TF2L           BIT 0xce
_TF2H           BIT 0xcf
_T4XCLK0        BIT 0x98
_T4XCLK1        BIT 0x99
_TR4            BIT 0x9a
_T4SPLIT        BIT 0x9b
_TF4CEN         BIT 0x9c
_TF4LEN         BIT 0x9d
_TF4L           BIT 0x9e
_TF4H           BIT 0x9f
_T5XCLK0        BIT 0xc0
_T5XCLK1        BIT 0xc1
_TR5            BIT 0xc2
_T5SPLIT        BIT 0xc3
_TF5CEN         BIT 0xc4
_TF5LEN         BIT 0xc5
_TF5L           BIT 0xc6
_TF5H           BIT 0xc7
_RIE            BIT 0xd8
_RXTO0          BIT 0xd9
_RXTO1          BIT 0xda
_RFRQ           BIT 0xdb
_TIE            BIT 0xdc
_TXHOLD         BIT 0xdd
_TXNF1          BIT 0xde
_TFRQ           BIT 0xdf
;--------------------------------------------------------
; overlayable register banks
;--------------------------------------------------------
	rbank0 segment data overlay
;--------------------------------------------------------
; overlayable bit register bank
;--------------------------------------------------------
	rseg BIT_BANK
bits:
	ds 1
	b0 equ  bits.0 
	b1 equ  bits.1 
	b2 equ  bits.2 
	b3 equ  bits.3 
	b4 equ  bits.4 
	b5 equ  bits.5 
	b6 equ  bits.6 
	b7 equ  bits.7 
;--------------------------------------------------------
; internal ram data
;--------------------------------------------------------
	rseg R_DSEG
_tx_head:
	ds 1
_tx_tail:
	ds 1
_rx_head:
	ds 1
_rx_tail:
	ds 1
;--------------------------------------------------------
; overlayable items in internal ram 
;--------------------------------------------------------
	rseg R_OSEG
;--------------------------------------------------------
; indirectly addressable internal ram data
;--------------------------------------------------------
	rseg R_ISEG
;--------------------------------------------------------
; absolute internal ram data
;--------------------------------------------------------
	DSEG
;--------------------------------------------------------
; bit data
;--------------------------------------------------------
	rseg R_BSEG
_tx_busy:
	DBIT	1
_UART_available_sloc0_1_0:
	DBIT	1
;--------------------------------------------------------
; paged external ram data
;--------------------------------------------------------
	rseg R_PSEG
;--------------------------------------------------------
; external ram data
;--------------------------------------------------------
	rseg R_XSEG
_tx_buf:
	ds 64
_rx_buf:
	ds 64
;--------------------------------------------------------
; absolute external ram data
;--------------------------------------------------------
	XSEG
;--------------------------------------------------------
; external initialized ram data
;--------------------------------------------------------
	rseg R_IXSEG
	rseg R_HOME
	rseg R_GSINIT
	rseg R_CSEG
;--------------------------------------------------------
; Interrupt vectors
;--------------------------------------------------------
	CSEG at 0x0023
	ljmp	_UART0_ISR
;--------------------------------------------------------
; global & static initialisations
;--------------------------------------------------------
	rseg R_HOME
	rseg R_GSINIT
	rseg R_GSINIT
;--------------------------------------------------------
; data variables initialization
;--------------------------------------------------------
	rseg R_DINIT
;	src/uart.c:6: static unsigned char tx_head = 0;
	mov	_tx_head,#0x00
;	src/uart.c:7: static unsigned char tx_tail = 0;
	mov	_tx_tail,#0x00
;	src/uart.c:12: static unsigned char rx_head = 0;
	mov	_rx_head,#0x00
;	src/uart.c:13: static unsigned char rx_tail = 0; 
	mov	_rx_tail,#0x00
;	src/uart.c:8: static bit tx_busy = 0;
	clr	_tx_busy
	; The linker places a 'ret' at the end of segment R_DINIT.
;--------------------------------------------------------
; code
;--------------------------------------------------------
	rseg R_CSEG
;------------------------------------------------------------
;Allocation info for local variables in function 'UART_init'
;------------------------------------------------------------
;------------------------------------------------------------
;	src/uart.c:15: void UART_init(void) {
;	-----------------------------------------
;	 function UART_init
;	-----------------------------------------
_UART_init:
	using	0
;	src/uart.c:16: ES0 = 1;
	setb	_ES0
;	src/uart.c:17: EA = 1;
	setb	_EA
	ret
;------------------------------------------------------------
;Allocation info for local variables in function 'UART0_ISR'
;------------------------------------------------------------
;------------------------------------------------------------
;	src/uart.c:20: void UART0_ISR(void) __interrupt(4) {
;	-----------------------------------------
;	 function UART0_ISR
;	-----------------------------------------
_UART0_ISR:
	push	bits
	push	acc
	push	b
	push	dpl
	push	dph
	push	(0+2)
	push	(0+3)
	push	(0+4)
	push	(0+5)
	push	(0+6)
	push	(0+7)
	push	(0+0)
	push	(0+1)
	push	psw
	mov	psw,#0x00
;	src/uart.c:21: if (RI) { // received a byte -> 1
;	src/uart.c:22: RI = 0;
	jbc	_RI,L003013?
	sjmp	L003002?
L003013?:
;	src/uart.c:23: rx_buf[rx_head] = SBUF;
	mov	a,_rx_head
	add	a,#_rx_buf
	mov	dpl,a
	clr	a
	addc	a,#(_rx_buf >> 8)
	mov	dph,a
	mov	a,_SBUF
	movx	@dptr,a
;	src/uart.c:24: rx_head = (rx_head + 1) % TX_BUF_SIZE;
	mov	r2,_rx_head
	mov	r3,#0x00
	mov	dpl,r2
	mov	dph,r3
	inc	dptr
	mov	__modsint_PARM_2,#0x40
	clr	a
	mov	(__modsint_PARM_2 + 1),a
	lcall	__modsint
	mov	r2,dpl
	mov	r3,dph
	mov	_rx_head,r2
L003002?:
;	src/uart.c:27: if (TI) {
;	src/uart.c:28: TI = 0;
	jbc	_TI,L003014?
	sjmp	L003008?
L003014?:
;	src/uart.c:29: if (tx_tail != tx_head) {
	mov	a,_tx_head
	cjne	a,_tx_tail,L003015?
	sjmp	L003004?
L003015?:
;	src/uart.c:30: SBUF = tx_buf[tx_tail];
	mov	a,_tx_tail
	add	a,#_tx_buf
	mov	dpl,a
	clr	a
	addc	a,#(_tx_buf >> 8)
	mov	dph,a
	movx	a,@dptr
	mov	_SBUF,a
;	src/uart.c:31: tx_tail = (tx_tail + 1) % TX_BUF_SIZE;
	mov	r2,_tx_tail
	mov	r3,#0x00
	mov	dpl,r2
	mov	dph,r3
	inc	dptr
	mov	__modsint_PARM_2,#0x40
	clr	a
	mov	(__modsint_PARM_2 + 1),a
	lcall	__modsint
	mov	r2,dpl
	mov	r3,dph
	mov	_tx_tail,r2
	sjmp	L003008?
L003004?:
;	src/uart.c:34: tx_busy = 0;
	clr	_tx_busy
L003008?:
	pop	psw
	pop	(0+1)
	pop	(0+0)
	pop	(0+7)
	pop	(0+6)
	pop	(0+5)
	pop	(0+4)
	pop	(0+3)
	pop	(0+2)
	pop	dph
	pop	dpl
	pop	b
	pop	acc
	pop	bits
	reti
;------------------------------------------------------------
;Allocation info for local variables in function 'UART_send_char'
;------------------------------------------------------------
;c                         Allocated to registers r2 
;------------------------------------------------------------
;	src/uart.c:39: void UART_send_char(char c)
;	-----------------------------------------
;	 function UART_send_char
;	-----------------------------------------
_UART_send_char:
	mov	r2,dpl
;	src/uart.c:42: while (((tx_head + 1) % TX_BUF_SIZE) == tx_tail);
L004001?:
	mov	r3,_tx_head
	mov	r4,#0x00
	mov	dpl,r3
	mov	dph,r4
	inc	dptr
	mov	__modsint_PARM_2,#0x40
	clr	a
	mov	(__modsint_PARM_2 + 1),a
	push	ar2
	push	ar3
	push	ar4
	lcall	__modsint
	mov	r5,dpl
	mov	r6,dph
	pop	ar4
	pop	ar3
	pop	ar2
	mov	r7,_tx_tail
	mov	r0,#0x00
	mov	a,r5
	cjne	a,ar7,L004011?
	mov	a,r6
	cjne	a,ar0,L004011?
	sjmp	L004001?
L004011?:
;	src/uart.c:44: EA = 0;
	clr	_EA
;	src/uart.c:45: tx_buf[tx_head] = c;
	mov	a,_tx_head
	add	a,#_tx_buf
	mov	dpl,a
	clr	a
	addc	a,#(_tx_buf >> 8)
	mov	dph,a
	mov	a,r2
	movx	@dptr,a
;	src/uart.c:46: tx_head = (tx_head + 1) % TX_BUF_SIZE;
	mov	dpl,r3
	mov	dph,r4
	inc	dptr
	mov	__modsint_PARM_2,#0x40
	clr	a
	mov	(__modsint_PARM_2 + 1),a
	lcall	__modsint
	mov	r2,dpl
	mov	r3,dph
	mov	_tx_head,r2
;	src/uart.c:48: if (!tx_busy)
	jb	_tx_busy,L004005?
;	src/uart.c:50: tx_busy = 1;
	setb	_tx_busy
;	src/uart.c:51: TI = 1;   // Kick-start the ISR
	setb	_TI
L004005?:
;	src/uart.c:53: EA = 1;
	setb	_EA
	ret
;------------------------------------------------------------
;Allocation info for local variables in function 'UART_send_string'
;------------------------------------------------------------
;s                         Allocated to registers r2 r3 r4 
;------------------------------------------------------------
;	src/uart.c:56: void UART_send_string(const char *s)
;	-----------------------------------------
;	 function UART_send_string
;	-----------------------------------------
_UART_send_string:
	mov	r2,dpl
	mov	r3,dph
	mov	r4,b
;	src/uart.c:58: while (*s)
L005001?:
	mov	dpl,r2
	mov	dph,r3
	mov	b,r4
	lcall	__gptrget
	mov	r5,a
	jz	L005004?
;	src/uart.c:60: UART_send_char(*s++);
	mov	dpl,r5
	inc	r2
	cjne	r2,#0x00,L005010?
	inc	r3
L005010?:
	push	ar2
	push	ar3
	push	ar4
	lcall	_UART_send_char
	pop	ar4
	pop	ar3
	pop	ar2
	sjmp	L005001?
L005004?:
	ret
;------------------------------------------------------------
;Allocation info for local variables in function 'UART_available'
;------------------------------------------------------------
;------------------------------------------------------------
;	src/uart.c:64: bit UART_available(void) {
;	-----------------------------------------
;	 function UART_available
;	-----------------------------------------
_UART_available:
;	src/uart.c:65: return (rx_head != rx_tail);
	mov	a,_rx_tail
	cjne	a,_rx_head,L006003?
	setb	c
	sjmp	L006004?
L006003?:
	clr	c
L006004?:
	mov  _UART_available_sloc0_1_0,c
	cpl	c
	ret
;------------------------------------------------------------
;Allocation info for local variables in function 'UART_read'
;------------------------------------------------------------
;c                         Allocated to registers r2 
;------------------------------------------------------------
;	src/uart.c:68: char UART_read(void) {
;	-----------------------------------------
;	 function UART_read
;	-----------------------------------------
_UART_read:
;	src/uart.c:70: while (!UART_available());
L007001?:
	lcall	_UART_available
	jnc	L007001?
;	src/uart.c:71: c = rx_buf[rx_tail];
	mov	a,_rx_tail
	add	a,#_rx_buf
	mov	dpl,a
	clr	a
	addc	a,#(_rx_buf >> 8)
	mov	dph,a
	movx	a,@dptr
	mov	r2,a
;	src/uart.c:72: rx_tail = (rx_tail + 1) % RX_BUF_SIZE;
	mov	r3,_rx_tail
	mov	r4,#0x00
	mov	dpl,r3
	mov	dph,r4
	inc	dptr
	mov	__modsint_PARM_2,#0x40
	clr	a
	mov	(__modsint_PARM_2 + 1),a
	push	ar2
	lcall	__modsint
	mov	r3,dpl
	pop	ar2
	mov	_rx_tail,r3
;	src/uart.c:73: return c;
	mov	dpl,r2
	ret
	rseg R_CSEG

	rseg R_XINIT

	rseg R_CONST

	CSEG

end
